; Function Attrs: mustprogress nofree norecurse nounwind willreturn memory(readwrite, inaccessiblemem: none) uwtable
define internal fastcc void @_ZN32pxrInternal_v0_24__pxrReserved__12_GLOBAL__N_115_CopyStackEntryC2ERKNS_7SdfPathES4_(ptr noundef nonnull writeonly align 4 captures(none) dereferenceable(16) initializes((0, 16)) %0, ptr noundef nonnull readonly align 4 captures(none) dereferenceable(8) %1, ptr noundef nonnull readonly align 4 captures(none) dereferenceable(8) %2) unnamed_addr #2 align 2 personality ptr @__gxx_personality_v0 {
  %4 = load i32, ptr %1, align 4
  store i32 %4, ptr %0, align 4
  %.not.i.i = icmp eq i32 %4, 0
  br i1 %.not.i.i, label %_ZN32pxrInternal_v0_24__pxrReserved__7SdfPathC2ERKS0_.exit, label %5

5:                                                ; preds = %3
  %6 = and i32 %4, 255
  %7 = lshr i32 %4, 8
  %8 = zext nneg i32 %6 to i64
  %9 = getelementptr inbounds nuw [257 x ptr], ptr @_ZN32pxrInternal_v0_24__pxrReserved__8Sdf_PoolINS_15Sdf_PathPrimTagELj24ELj8ELj16384EE13_regionStartsE, i64 0, i64 %8
  %10 = load ptr, ptr %9, align 8
  %11 = mul nuw nsw i32 %7, 24
  %12 = zext nneg i32 %11 to i64
  %13 = getelementptr inbounds nuw i8, ptr %10, i64 %12
  %14 = getelementptr inbounds nuw i8, ptr %13, i64 8
  %15 = atomicrmw add ptr %14, i32 1 monotonic, align 4
  br label %_ZN32pxrInternal_v0_24__pxrReserved__7SdfPathC2ERKS0_.exit

_ZN32pxrInternal_v0_24__pxrReserved__7SdfPathC2ERKS0_.exit: ; preds = %3, %5
  %16 = getelementptr inbounds nuw i8, ptr %0, i64 4
  %17 = getelementptr inbounds nuw i8, ptr %1, i64 4
  %18 = load i32, ptr %17, align 4
  store i32 %18, ptr %16, align 4
  %19 = getelementptr inbounds nuw i8, ptr %0, i64 8
  %20 = load i32, ptr %2, align 4
  store i32 %20, ptr %19, align 4
  %.not.i.i3 = icmp eq i32 %20, 0
  br i1 %.not.i.i3, label %_ZN32pxrInternal_v0_24__pxrReserved__7SdfPathC2ERKS0_.exit4, label %21

21:                                               ; preds = %_ZN32pxrInternal_v0_24__pxrReserved__7SdfPathC2ERKS0_.exit
  %22 = and i32 %20, 255
  %23 = lshr i32 %20, 8
  %24 = zext nneg i32 %22 to i64
  %25 = getelementptr inbounds nuw [257 x ptr], ptr @_ZN32pxrInternal_v0_24__pxrReserved__8Sdf_PoolINS_15Sdf_PathPrimTagELj24ELj8ELj16384EE13_regionStartsE, i64 0, i64 %24
  %26 = load ptr, ptr %25, align 8
  %27 = mul nuw nsw i32 %23, 24
  %28 = zext nneg i32 %27 to i64
  %29 = getelementptr inbounds nuw i8, ptr %26, i64 %28
  %30 = getelementptr inbounds nuw i8, ptr %29, i64 8
  %31 = atomicrmw add ptr %30, i32 1 monotonic, align 4
  br label %_ZN32pxrInternal_v0_24__pxrReserved__7SdfPathC2ERKS0_.exit4

_ZN32pxrInternal_v0_24__pxrReserved__7SdfPathC2ERKS0_.exit4: ; preds = %_ZN32pxrInternal_v0_24__pxrReserved__7SdfPathC2ERKS0_.exit, %21
  %32 = getelementptr inbounds nuw i8, ptr %0, i64 12
  %33 = getelementptr inbounds nuw i8, ptr %2, i64 4
  %34 = load i32, ptr %33, align 4
  store i32 %34, ptr %32, align 4
  ret void
}